target datalayout = "e-m:e-p270:32:32-p271:32:32-p272:64:64-i64:64-i128:128-f80:128-n8:16:32:64-S128"
target triple = "x86_64-pc-linux-gnu"

%struct.tr2_tgt = type { ptr, ptr, ptr, ptr, ptr, ptr, ptr, ptr, ptr, ptr, ptr, ptr, ptr, ptr, ptr, ptr, ptr, ptr, ptr, ptr, ptr, ptr, ptr, ptr, ptr, ptr, ptr, ptr, ptr, ptr }
%struct.repository = type { ptr, ptr, ptr, ptr, ptr, %struct.strmap, %struct.strmap, %struct.repo_path_cache, ptr, ptr, ptr, ptr, %struct.repo_settings, ptr, ptr, ptr, ptr, ptr, ptr, i32, i32, i32, ptr, ptr, i32, i32, i8 }
%struct.strmap = type { %struct.hashmap, ptr, i8 }
%struct.hashmap = type { ptr, ptr, ptr, i32, i32, i32, i32, i8 }
%struct.repo_path_cache = type { ptr, ptr, ptr, ptr, ptr, ptr, ptr }
%struct.repo_settings = type { i32, i32, i32, i32, i32, i32, i32, i32, i32, i32, i32, i32, ptr, i32, i32, i32, i32, i32, i32, i32, i64, i64, i64 }

@trace2_enabled = internal global i32 0, align 4
@tr2_tgt_builtins = internal global [4 x ptr] [ptr @tr2_tgt_normal, ptr @tr2_tgt_perf, ptr @tr2_tgt_event, ptr null], align 16
@tr2_next_repo_id = internal global i32 1, align 4

; Function Attrs: nounwind uwtable
define dso_local void @trace2_def_repo_fl(ptr noundef %0, i32 noundef %1, ptr noundef %2) #0 {
  %4 = alloca ptr, align 8
  %5 = alloca i32, align 4
  %6 = alloca ptr, align 8
  %7 = alloca ptr, align 8
  %8 = alloca i32, align 4
  %9 = alloca i32, align 4
  store ptr %0, ptr %4, align 8, !tbaa !4
  store i32 %1, ptr %5, align 4, !tbaa !9
  store ptr %2, ptr %6, align 8, !tbaa !72
  call void @llvm.lifetime.start.p0(i64 8, ptr %7) #9
  call void @llvm.lifetime.start.p0(i64 4, ptr %8) #9
  %10 = load i32, ptr @trace2_enabled, align 4, !tbaa !9
  %11 = icmp ne i32 %10, 0
  br i1 %11, label %13, label %12

12:                                               ; preds = %3
  store i32 1, ptr %9, align 4
  br label %58

13:                                               ; preds = %3
  %14 = load ptr, ptr %6, align 8, !tbaa !72
  %15 = getelementptr inbounds nuw %struct.repository, ptr %14, i32 0, i32 20
  %16 = load i32, ptr %15, align 4, !tbaa !93
  %17 = icmp ne i32 %16, 0
  br i1 %17, label %18, label %19

18:                                               ; preds = %13
  store i32 1, ptr %9, align 4
  br label %58

19:                                               ; preds = %13
  %20 = call i32 @tr2tls_locked_increment(ptr noundef @tr2_next_repo_id)
  %21 = load ptr, ptr %6, align 8, !tbaa !72
  %22 = getelementptr inbounds nuw %struct.repository, ptr %21, i32 0, i32 20
  store i32 %20, ptr %22, align 4, !tbaa !93
  store i32 0, ptr %8, align 4, !tbaa !9
  %23 = load i32, ptr %8, align 4, !tbaa !9
  %24 = sext i32 %23 to i64
  %25 = getelementptr inbounds [4 x ptr], ptr @tr2_tgt_builtins, i64 0, i64 %24
  %26 = load ptr, ptr %25, align 8, !tbaa !11
  store ptr %26, ptr %7, align 8, !tbaa !11
  br label %27

27:                                               ; preds = %50, %19
  %28 = load ptr, ptr %7, align 8, !tbaa !11
  %29 = icmp ne ptr %28, null
  br i1 %29, label %30, label %57

30:                                               ; preds = %27
  %31 = load ptr, ptr %7, align 8, !tbaa !11
  %32 = getelementptr inbounds nuw %struct.tr2_tgt, ptr %31, i32 0, i32 0
  %33 = load ptr, ptr %32, align 8, !tbaa !13
  %34 = call i32 @tr2_dst_trace_want(ptr noundef %33)
  %35 = icmp ne i32 %34, 0
  br i1 %35, label %36, label %49

36:                                               ; preds = %30
  %37 = load ptr, ptr %7, align 8, !tbaa !11
  %38 = getelementptr inbounds nuw %struct.tr2_tgt, ptr %37, i32 0, i32 22
  %39 = load ptr, ptr %38, align 8, !tbaa !111
  %40 = icmp ne ptr %39, null
  br i1 %40, label %41, label %48

41:                                               ; preds = %36
  %42 = load ptr, ptr %7, align 8, !tbaa !11
  %43 = getelementptr inbounds nuw %struct.tr2_tgt, ptr %42, i32 0, i32 22
  %44 = load ptr, ptr %43, align 8, !tbaa !111
  %45 = load ptr, ptr %4, align 8, !tbaa !4
  %46 = load i32, ptr %5, align 4, !tbaa !9
  %47 = load ptr, ptr %6, align 8, !tbaa !72
  call void %44(ptr noundef %45, i32 noundef %46, ptr noundef %47)
  br label %48

48:                                               ; preds = %41, %36
  br label %49

49:                                               ; preds = %48, %30
  br label %50

50:                                               ; preds = %49
  %51 = load i32, ptr %8, align 4, !tbaa !9
  %52 = add nsw i32 %51, 1
  store i32 %52, ptr %8, align 4, !tbaa !9
  %53 = load i32, ptr %8, align 4, !tbaa !9
  %54 = sext i32 %53 to i64
  %55 = getelementptr inbounds [4 x ptr], ptr @tr2_tgt_builtins, i64 0, i64 %54
  %56 = load ptr, ptr %55, align 8, !tbaa !11
  store ptr %56, ptr %7, align 8, !tbaa !11
  br label %27, !llvm.loop !112

57:                                               ; preds = %27
  store i32 0, ptr %9, align 4
  br label %58

58:                                               ; preds = %57, %18, %12
  call void @llvm.lifetime.end.p0(i64 4, ptr %8) #9
  call void @llvm.lifetime.end.p0(i64 8, ptr %7) #9
  %59 = load i32, ptr %9, align 4
  switch i32 %59, label %61 [
    i32 0, label %60
    i32 1, label %60
  ]

60:                                               ; preds = %58, %58
  ret void

61:                                               ; preds = %58
  unreachable
}