; Function Attrs: nounwind uwtable
define dso_local void @trace2_def_repo_fl(ptr noundef %0, i32 noundef %1, ptr noundef %2) local_unnamed_addr #0 {
  %.b = load i1, ptr @trace2_enabled, align 4
  br i1 %.b, label %4, label %.loopexit

4:                                                ; preds = %3
  %5 = getelementptr inbounds nuw i8, ptr %2, i64 420
  %6 = load i32, ptr %5, align 4, !tbaa !82
  %.not = icmp eq i32 %6, 0
  br i1 %.not, label %7, label %.loopexit

7:                                                ; preds = %4
  %8 = tail call i32 @tr2tls_locked_increment(ptr noundef nonnull @tr2_next_repo_id) #11
  store i32 %8, ptr %5, align 4, !tbaa !82
  br label %9

9:                                                ; preds = %7, %16
  %indvars.iv = phi i64 [ 0, %7 ], [ %indvars.iv.next, %16 ]
  %.01116 = phi ptr [ @tr2_tgt_normal, %7 ], [ %18, %16 ]
  %10 = load ptr, ptr %.01116, align 8, !tbaa !14
  %11 = tail call i32 @tr2_dst_trace_want(ptr noundef %10) #11
  %.not14 = icmp eq i32 %11, 0
  br i1 %.not14, label %16, label %12

12:                                               ; preds = %9
  %13 = getelementptr inbounds nuw i8, ptr %.01116, i64 176
  %14 = load ptr, ptr %13, align 8, !tbaa !100
  %.not15 = icmp eq ptr %14, null
  br i1 %.not15, label %16, label %15

15:                                               ; preds = %12
  tail call void %14(ptr noundef %0, i32 noundef %1, ptr noundef %2) #11
  br label %16

16:                                               ; preds = %9, %15, %12
  %indvars.iv.next = add nuw nsw i64 %indvars.iv, 1
  %17 = getelementptr inbounds nuw [4 x ptr], ptr @tr2_tgt_builtins, i64 0, i64 %indvars.iv.next
  %18 = load ptr, ptr %17, align 8, !tbaa !10
  %.not13 = icmp eq i64 %indvars.iv.next, 3
  br i1 %.not13, label %.loopexit, label %9, !llvm.loop !101

.loopexit:                                        ; preds = %16, %4, %3
  ret void
}